; Function Attrs: nounwind uwtable
define internal void @notification_fn(i64 %0, i32 %1, ptr readnone captures(none) %2, ptr noundef readonly captures(address_is_null) %3, i64 noundef %4, ptr readnone captures(none) %5, i64 %6, ptr noundef readonly captures(address_is_null) %7, ptr noundef %8) #0 {
  %10 = load i32, ptr getelementptr inbounds nuw (i8, ptr @pmix_client_globals, i64 776), align 8, !tbaa !198
  %or.cond = icmp ult i32 %10, 64
  br i1 %or.cond, label %11, label %18

11:                                               ; preds = %9
  %12 = zext nneg i32 %10 to i64
  %13 = getelementptr inbounds nuw [0 x %struct.pmix_output_desc_t], ptr @pmix_output_info, i64 0, i64 %12, i32 2
  %14 = load i32, ptr %13, align 4, !tbaa !86
  %15 = icmp sgt i32 %14, 1
  br i1 %15, label %16, label %18

16:                                               ; preds = %11
  %17 = load i32, ptr getelementptr inbounds nuw (i8, ptr @pmix_globals, i64 260), align 4, !tbaa !40
  tail call void (i32, ptr, ...) @pmix_output(i32 noundef %10, ptr noundef nonnull @.str.85, ptr noundef nonnull getelementptr inbounds nuw (i8, ptr @pmix_globals, i64 4), i32 noundef %17) #19
  br label %18

18:                                               ; preds = %16, %11, %9
  %.not = icmp eq ptr %3, null
  br i1 %.not, label %.thread, label %.preheader

.preheader:                                       ; preds = %18
  %.not45 = icmp eq i64 %4, 0
  br i1 %.not45, label %._crit_edge.thread, label %.lr.ph

.lr.ph:                                           ; preds = %.preheader, %31
  %.043 = phi i64 [ %32, %31 ], [ 0, %.preheader ]
  %.02842 = phi ptr [ %.1, %31 ], [ null, %.preheader ]
  %.13041 = phi ptr [ %.2, %31 ], [ null, %.preheader ]
  %19 = getelementptr inbounds nuw %struct.pmix_info, ptr %3, i64 %.043
  %20 = tail call i32 @strncmp(ptr noundef nonnull dereferenceable(1) %19, ptr noundef nonnull dereferenceable(14) @.str.43, i64 noundef 511) #20
  %21 = icmp eq i32 %20, 0
  br i1 %21, label %22, label %25

22:                                               ; preds = %.lr.ph
  %23 = getelementptr inbounds nuw i8, ptr %19, i64 528
  %24 = load ptr, ptr %23, align 8, !tbaa !43
  br label %31

25:                                               ; preds = %.lr.ph
  %26 = tail call i32 @strncmp(ptr noundef nonnull dereferenceable(1) %19, ptr noundef nonnull dereferenceable(12) @.str.44, i64 noundef 511) #20
  %27 = icmp eq i32 %26, 0
  br i1 %27, label %28, label %31

28:                                               ; preds = %25
  %29 = getelementptr inbounds nuw i8, ptr %19, i64 528
  %30 = load ptr, ptr %29, align 8, !tbaa !43
  br label %31

31:                                               ; preds = %22, %28, %25
  %.2 = phi ptr [ %24, %22 ], [ %.13041, %28 ], [ %.13041, %25 ]
  %.1 = phi ptr [ %.02842, %22 ], [ %30, %28 ], [ %.02842, %25 ]
  %32 = add nuw i64 %.043, 1
  %exitcond.not = icmp eq i64 %32, %4
  br i1 %exitcond.not, label %._crit_edge, label %.lr.ph, !llvm.loop !199

._crit_edge:                                      ; preds = %31
  %33 = icmp eq ptr %.2, null
  br i1 %33, label %._crit_edge.thread, label %44

._crit_edge.thread:                               ; preds = %.preheader, %._crit_edge
  %.028.lcssa48 = phi ptr [ %.1, %._crit_edge ], [ null, %.preheader ]
  %34 = load i32, ptr getelementptr inbounds nuw (i8, ptr @pmix_client_globals, i64 776), align 8, !tbaa !198
  %or.cond3 = icmp ult i32 %34, 64
  br i1 %or.cond3, label %35, label %43

35:                                               ; preds = %._crit_edge.thread
  %36 = zext nneg i32 %34 to i64
  %37 = getelementptr inbounds nuw [0 x %struct.pmix_output_desc_t], ptr @pmix_output_info, i64 0, i64 %36, i32 2
  %38 = load i32, ptr %37, align 4, !tbaa !86
  %39 = icmp sgt i32 %38, 1
  br i1 %39, label %40, label %43

40:                                               ; preds = %35
  %41 = icmp eq ptr %.028.lcssa48, null
  %42 = select i1 %41, ptr @.str.87, ptr %.028.lcssa48
  tail call void (i32, ptr, ...) @pmix_output(i32 noundef %34, ptr noundef nonnull @.str.86, ptr noundef nonnull %42) #19
  br label %43

43:                                               ; preds = %40, %35, %._crit_edge.thread
  %.not38 = icmp eq ptr %7, null
  br i1 %.not38, label %51, label %.sink.split

44:                                               ; preds = %._crit_edge
  %45 = getelementptr inbounds nuw i8, ptr %.2, i64 128
  %46 = tail call i32 @pthread_mutex_lock(ptr noundef nonnull %45) #19
  %47 = getelementptr inbounds nuw i8, ptr %.2, i64 216
  store volatile i8 0, ptr %47, align 8, !tbaa !3
  fence release
  %48 = getelementptr inbounds nuw i8, ptr %.2, i64 168
  %49 = tail call i32 @pthread_cond_broadcast(ptr noundef nonnull %48) #19
  %50 = tail call i32 @pthread_mutex_unlock(ptr noundef nonnull %45) #19
  br label %.thread

.thread:                                          ; preds = %18, %44
  %.not37 = icmp eq ptr %7, null
  br i1 %.not37, label %51, label %.sink.split

.sink.split:                                      ; preds = %.thread, %43
  %.sink = phi i32 [ 0, %43 ], [ -334, %.thread ]
  tail call void %7(i32 noundef %.sink, ptr noundef null, i64 noundef 0, ptr noundef null, ptr noundef null, ptr noundef %8) #19
  br label %51

51:                                               ; preds = %.sink.split, %.thread, %43
  ret void
}